target datalayout = "e-m:e-p270:32:32-p271:32:32-p272:64:64-i64:64-i128:128-f80:128-n8:16:32:64-S128"
target triple = "x86_64-pc-linux-gnu"

%struct._zend_array = type { %struct._zend_refcounted_h, %union.anon.0, i32, %union.anon.1, i32, i32, i32, i32, i64, ptr }
%struct._zend_refcounted_h = type { i32, %union.anon }
%union.anon = type { i32 }
%union.anon.0 = type { i32 }
%union.anon.1 = type { ptr }
%struct._zend_executor_globals = type { %struct._zval_struct, %struct._zval_struct, [32 x ptr], ptr, ptr, %struct._zend_array, %struct._zend_array, ptr, i32, i32, ptr, ptr, ptr, ptr, ptr, ptr, i64, ptr, ptr, i32, i32, i64, i32, i32, i32, i8, i8, %struct.zend_atomic_bool_s, %struct.zend_atomic_bool_s, ptr, i64, ptr, ptr, %struct._zend_array, %struct._zend_array, i32, i8, %struct._zval_struct, %struct._zval_struct, %struct._zend_stack, %struct._zend_stack, %struct._zend_stack, ptr, i32, i32, i64, ptr, ptr, ptr, %struct._zend_objects_store, ptr, ptr, ptr, [3 x %struct._zend_op], ptr, i8, i8, i64, i32, i32, ptr, [16 x %struct._HashTableIterator], ptr, %union._zend_function, %struct._zend_op, %struct._zend_array, i64, %struct.zend_get_gc_buffer, ptr, ptr, ptr, i64, i8, i32, ptr, ptr, i64, %struct._zend_call_stack, i64, i64, [6 x ptr] }
%struct.zend_atomic_bool_s = type { i8 }
%struct._zval_struct = type { %union._zend_value, %union.anon.3, %union.anon.6 }
%union._zend_value = type { i64 }
%union.anon.3 = type { i32 }
%union.anon.6 = type { i32 }
%struct._zend_stack = type { i32, i32, i32, ptr }
%struct._zend_objects_store = type { ptr, i32, i32, i32 }
%struct._HashTableIterator = type { ptr, i32, i32 }
%union._zend_function = type { %struct._zend_op_array }
%struct._zend_op_array = type { i8, [3 x i8], i32, ptr, ptr, ptr, i32, i32, ptr, ptr, ptr, ptr, i32, i32, i32, i32, ptr, ptr, ptr, ptr, ptr, i32, i32, ptr, ptr, ptr, i32, i32, i32, i32, ptr, ptr, [6 x ptr] }
%struct._zend_op = type { ptr, %union._znode_op, %union._znode_op, %union._znode_op, i32, i32, i8, i8, i8, i8 }
%union._znode_op = type { i32 }
%struct.zend_get_gc_buffer = type { ptr, ptr, ptr }
%struct._zend_call_stack = type { ptr, i64 }
%struct._zend_resource = type { %struct._zend_refcounted_h, i64, i32, ptr }
%struct._php_stream = type { ptr, ptr, %struct._php_stream_filter_chain, %struct._php_stream_filter_chain, ptr, ptr, %struct._zval_struct, i16, [16 x i8], i32, ptr, ptr, ptr, ptr, i64, ptr, i64, i64, i64, i64, ptr }
%struct._php_stream_filter_chain = type { ptr, ptr, ptr }

@le_pstream = internal global i32 -1, align 4
@executor_globals = external global %struct._zend_executor_globals, align 8

; Function Attrs: nounwind uwtable
define i32 @php_stream_from_persistent_id(ptr noundef %0, ptr noundef %1) #0 {
  %3 = alloca ptr, align 8
  %4 = alloca ptr, align 8
  %5 = alloca ptr, align 8
  %6 = alloca ptr, align 8
  %7 = alloca ptr, align 8
  %8 = alloca i64, align 8
  %9 = alloca ptr, align 8
  %10 = alloca ptr, align 8
  %11 = alloca i32, align 4
  %12 = alloca ptr, align 8
  %13 = alloca ptr, align 8
  %14 = alloca ptr, align 8
  %15 = alloca ptr, align 8
  %16 = alloca ptr, align 8
  %17 = alloca i32, align 4
  %18 = alloca i64, align 8
  %19 = alloca ptr, align 8
  store ptr %0, ptr %12, align 8
  store ptr %1, ptr %13, align 8
  %20 = load ptr, ptr %12, align 8
  %21 = load ptr, ptr %12, align 8
  %22 = call i64 @strlen(ptr noundef %21) #13
  store ptr getelementptr inbounds (%struct._zend_executor_globals, ptr @executor_globals, i32 0, i32 34), ptr %6, align 8
  store ptr %20, ptr %7, align 8
  store i64 %22, ptr %8, align 8
  %23 = load ptr, ptr %6, align 8
  %24 = load ptr, ptr %7, align 8
  %25 = load i64, ptr %8, align 8
  %26 = call ptr @zend_hash_str_find(ptr noundef %23, ptr noundef %24, i64 noundef %25) #14
  store ptr %26, ptr %9, align 8
  %27 = load ptr, ptr %9, align 8
  %28 = icmp ne ptr %27, null
  br i1 %28, label %29, label %35

29:                                               ; preds = %2
  %30 = load ptr, ptr %9, align 8
  %31 = load ptr, ptr %30, align 8
  %32 = icmp ne ptr %31, null
  call void @llvm.assume(i1 %32)
  %33 = load ptr, ptr %9, align 8
  %34 = load ptr, ptr %33, align 8
  store ptr %34, ptr %5, align 8
  br label %36

35:                                               ; preds = %2
  store ptr null, ptr %5, align 8
  br label %36

36:                                               ; preds = %35, %29
  %37 = load ptr, ptr %5, align 8
  store ptr %37, ptr %14, align 8
  %38 = icmp ne ptr %37, null
  br i1 %38, label %39, label %128

39:                                               ; preds = %36
  %40 = load ptr, ptr %14, align 8
  %41 = getelementptr inbounds %struct._zend_resource, ptr %40, i32 0, i32 2
  %42 = load i32, ptr %41, align 8
  %43 = load i32, ptr @le_pstream, align 4
  %44 = icmp eq i32 %42, %43
  br i1 %44, label %45, label %127

45:                                               ; preds = %39
  %46 = load ptr, ptr %13, align 8
  %47 = icmp ne ptr %46, null
  br i1 %47, label %48, label %126

48:                                               ; preds = %45
  store ptr null, ptr %15, align 8
  %49 = load ptr, ptr %14, align 8
  %50 = getelementptr inbounds %struct._zend_resource, ptr %49, i32 0, i32 3
  %51 = load ptr, ptr %50, align 8
  %52 = load ptr, ptr %13, align 8
  store ptr %51, ptr %52, align 8
  br label %53

53:                                               ; preds = %48
  store ptr getelementptr inbounds (%struct._zend_executor_globals, ptr @executor_globals, i32 0, i32 33), ptr %16, align 8
  %54 = load ptr, ptr %16, align 8
  %55 = getelementptr inbounds %struct._zend_array, ptr %54, i32 0, i32 4
  %56 = load i32, ptr %55, align 8
  store i32 %56, ptr %17, align 4
  %57 = load ptr, ptr %16, align 8
  %58 = getelementptr inbounds %struct._zend_array, ptr %57, i32 0, i32 1
  %59 = load i32, ptr %58, align 8
  %60 = xor i32 %59, -1
  %61 = and i32 %60, 4
  %62 = zext i32 %61 to i64
  %63 = mul i64 %62, 4
  %64 = add i64 16, %63
  store i64 %64, ptr %18, align 8
  %65 = load ptr, ptr %16, align 8
  %66 = getelementptr inbounds %struct._zend_array, ptr %65, i32 0, i32 3
  %67 = load ptr, ptr %66, align 8
  store ptr %67, ptr %19, align 8
  br label %68

68:                                               ; preds = %106, %53
  %69 = load i32, ptr %17, align 4
  %70 = icmp ugt i32 %69, 0
  br i1 %70, label %71, label %112

71:                                               ; preds = %68
  %72 = load ptr, ptr %19, align 8
  store ptr %72, ptr %10, align 8
  %73 = load ptr, ptr %10, align 8
  %74 = getelementptr inbounds %struct._zval_struct, ptr %73, i32 0, i32 1
  %75 = load i8, ptr %74, align 8
  %76 = zext i8 %75 to i32
  %77 = icmp eq i32 %76, 0
  %78 = xor i1 %77, true
  %79 = xor i1 %78, true
  %80 = zext i1 %79 to i32
  %81 = sext i32 %80 to i64
  %82 = icmp ne i64 %81, 0
  br i1 %82, label %83, label %84

83:                                               ; preds = %71
  br label %106

84:                                               ; preds = %71
  %85 = load ptr, ptr %19, align 8
  %86 = getelementptr inbounds %struct._zval_struct, ptr %85, i32 0, i32 0
  %87 = load ptr, ptr %86, align 8
  store ptr %87, ptr %15, align 8
  %88 = load ptr, ptr %15, align 8
  %89 = getelementptr inbounds %struct._zend_resource, ptr %88, i32 0, i32 3
  %90 = load ptr, ptr %89, align 8
  %91 = load ptr, ptr %14, align 8
  %92 = getelementptr inbounds %struct._zend_resource, ptr %91, i32 0, i32 3
  %93 = load ptr, ptr %92, align 8
  %94 = icmp eq ptr %90, %93
  br i1 %94, label %95, label %105

95:                                               ; preds = %84
  %96 = load ptr, ptr %15, align 8
  %97 = getelementptr inbounds %struct._zend_resource, ptr %96, i32 0, i32 0
  store ptr %97, ptr %3, align 8
  %98 = load ptr, ptr %3, align 8
  %99 = load i32, ptr %98, align 4
  %100 = add i32 %99, 1
  store i32 %100, ptr %98, align 4
  %101 = load ptr, ptr %15, align 8
  %102 = load ptr, ptr %13, align 8
  %103 = load ptr, ptr %102, align 8
  %104 = getelementptr inbounds %struct._php_stream, ptr %103, i32 0, i32 10
  store ptr %101, ptr %104, align 8
  store i32 0, ptr %11, align 4
  br label %129

105:                                              ; preds = %84
  br label %106

106:                                              ; preds = %105, %83
  %107 = load ptr, ptr %19, align 8
  %108 = load i64, ptr %18, align 8
  %109 = getelementptr inbounds i8, ptr %107, i64 %108
  store ptr %109, ptr %19, align 8
  %110 = load i32, ptr %17, align 4
  %111 = add i32 %110, -1
  store i32 %111, ptr %17, align 4
  br label %68

112:                                              ; preds = %68
  br label %113

113:                                              ; preds = %112
  %114 = load ptr, ptr %14, align 8
  %115 = getelementptr inbounds %struct._zend_resource, ptr %114, i32 0, i32 0
  store ptr %115, ptr %4, align 8
  %116 = load ptr, ptr %4, align 8
  %117 = load i32, ptr %116, align 4
  %118 = add i32 %117, 1
  store i32 %118, ptr %116, align 4
  %119 = load ptr, ptr %13, align 8
  %120 = load ptr, ptr %119, align 8
  %121 = load i32, ptr @le_pstream, align 4
  %122 = call ptr @zend_register_resource(ptr noundef %120, i32 noundef %121)
  %123 = load ptr, ptr %13, align 8
  %124 = load ptr, ptr %123, align 8
  %125 = getelementptr inbounds %struct._php_stream, ptr %124, i32 0, i32 10
  store ptr %122, ptr %125, align 8
  br label %126

126:                                              ; preds = %113, %45
  store i32 0, ptr %11, align 4
  br label %129

127:                                              ; preds = %39
  store i32 1, ptr %11, align 4
  br label %129

128:                                              ; preds = %36
  store i32 2, ptr %11, align 4
  br label %129

129:                                              ; preds = %128, %127, %126, %95
  %130 = load i32, ptr %11, align 4
  ret i32 %130
}