; Function Attrs: nounwind uwtable
define noundef i32 @php_stream_from_persistent_id(ptr noundef %0, ptr noundef %1) local_unnamed_addr #2 {
  %3 = tail call i64 @strlen(ptr noundef nonnull dereferenceable(1) %0) #28
  %4 = tail call ptr @zend_hash_str_find(ptr noundef nonnull getelementptr inbounds (%struct._zend_executor_globals, ptr @executor_globals, i64 0, i32 34), ptr noundef %0, i64 noundef %3) #27
  %.not = icmp eq ptr %4, null
  br i1 %.not, label %.thread, label %5

5:                                                ; preds = %2
  %6 = load ptr, ptr %4, align 8, !nonnull !4, !noundef !4
  %7 = getelementptr inbounds i8, ptr %6, i64 16
  %8 = load i32, ptr %7, align 8
  %9 = load i32, ptr @le_pstream, align 4
  %10 = icmp eq i32 %8, %9
  br i1 %10, label %11, label %.thread

11:                                               ; preds = %5
  %.not39 = icmp eq ptr %1, null
  br i1 %.not39, label %.thread, label %12

12:                                               ; preds = %11
  %13 = getelementptr inbounds i8, ptr %6, i64 24
  %14 = load ptr, ptr %13, align 8
  store ptr %14, ptr %1, align 8
  %15 = load i32, ptr getelementptr inbounds (%struct._zend_executor_globals, ptr @executor_globals, i64 0, i32 33, i32 4), align 8
  %16 = load i32, ptr getelementptr inbounds (%struct._zend_executor_globals, ptr @executor_globals, i64 0, i32 33, i32 1), align 8
  %17 = shl i32 %16, 2
  %18 = and i32 %17, 16
  %19 = xor i32 %18, 16
  %narrow = add nuw nsw i32 %19, 16
  %20 = zext nneg i32 %narrow to i64
  %.not4043 = icmp eq i32 %15, 0
  br i1 %.not4043, label %._crit_edge, label %.lr.ph.preheader

.lr.ph.preheader:                                 ; preds = %12
  %21 = load ptr, ptr getelementptr inbounds (%struct._zend_executor_globals, ptr @executor_globals, i64 0, i32 33, i32 3), align 8
  br label %.lr.ph

.lr.ph:                                           ; preds = %.lr.ph.preheader, %33
  %.045 = phi ptr [ %34, %33 ], [ %21, %.lr.ph.preheader ]
  %.03444 = phi i32 [ %35, %33 ], [ %15, %.lr.ph.preheader ]
  %22 = getelementptr inbounds i8, ptr %.045, i64 8
  %23 = load i8, ptr %22, align 8
  %24 = icmp eq i8 %23, 0
  br i1 %24, label %33, label %25

25:                                               ; preds = %.lr.ph
  %26 = load ptr, ptr %.045, align 8
  %27 = getelementptr inbounds i8, ptr %26, i64 24
  %28 = load ptr, ptr %27, align 8
  %29 = icmp eq ptr %28, %14
  br i1 %29, label %30, label %33

30:                                               ; preds = %25
  %31 = load i32, ptr %26, align 4
  %32 = add i32 %31, 1
  store i32 %32, ptr %26, align 4
  br label %.thread.sink.split

33:                                               ; preds = %25, %.lr.ph
  %34 = getelementptr inbounds i8, ptr %.045, i64 %20
  %35 = add i32 %.03444, -1
  %.not40 = icmp eq i32 %35, 0
  br i1 %.not40, label %._crit_edge, label %.lr.ph

._crit_edge:                                      ; preds = %33, %12
  %36 = load i32, ptr %6, align 4
  %37 = add i32 %36, 1
  store i32 %37, ptr %6, align 4
  %38 = load ptr, ptr %1, align 8
  %39 = tail call ptr @zend_register_resource(ptr noundef %38, i32 noundef %8) #27
  br label %.thread.sink.split

.thread.sink.split:                               ; preds = %30, %._crit_edge
  %.sink = phi ptr [ %39, %._crit_edge ], [ %26, %30 ]
  %40 = load ptr, ptr %1, align 8
  %41 = getelementptr inbounds i8, ptr %40, i64 120
  store ptr %.sink, ptr %41, align 8
  br label %.thread

.thread:                                          ; preds = %.thread.sink.split, %2, %5, %11
  %.035 = phi i32 [ 0, %11 ], [ 1, %5 ], [ 2, %2 ], [ 0, %.thread.sink.split ]
  ret i32 %.035
}